target datalayout = "e-m:e-p270:32:32-p271:32:32-p272:64:64-i64:64-i128:128-f80:128-n8:16:32:64-S128"
target triple = "x86_64-pc-linux-gnu"

%class.ref_vector = type { %class.ref_vector_core }
%class.ref_vector_core = type { %class.ref_manager_wrapper, %class.ptr_vector }
%class.ref_manager_wrapper = type { ptr }
%class.ptr_vector = type { %class.vector }
%class.vector = type { ptr }
%"class.smtfd::theory_plugin" = type { ptr, ptr, ptr, ptr, %class.ref_vector, %class.ref_vector.2, %class.ref_vector, %class.ref_vector, %"struct.smtfd::f_app_eq", %"struct.smtfd::f_app_hash", %class.scoped_ptr_vector, %class.obj_pair_map }
%class.ref_vector.2 = type { %class.ref_vector_core.3 }
%class.ref_vector_core.3 = type { %class.ref_manager_wrapper.4, %class.ptr_vector.5 }
%class.ref_manager_wrapper.4 = type { ptr }
%class.ptr_vector.5 = type { %class.vector.6 }
%class.vector.6 = type { ptr }
%"struct.smtfd::f_app_eq" = type { ptr }
%"struct.smtfd::f_app_hash" = type { ptr }
%class.scoped_ptr_vector = type { %class.ptr_vector.7 }
%class.ptr_vector.7 = type { %class.vector.8 }
%class.vector.8 = type { ptr }
%class.obj_pair_map = type { %class.core_hashtable }
%class.core_hashtable = type <{ ptr, i32, i32, i32, [4 x i8] }>
%"struct.smtfd::f_app" = type { ptr, ptr, ptr, i32 }
%class.app = type { %class.expr, ptr, i32, %struct.app_flags, [0 x ptr] }
%class.expr = type { %class.ast }
%class.ast = type { i32, i32, i32, i32 }
%struct.app_flags = type <{ i16, i8, i8 }>

; Function Attrs: mustprogress nounwind uwtable
define linkonce_odr hidden noundef nonnull align 8 dereferenceable(8) ptr @_ZNK6vectorIP4exprLb0EjEixEj(ptr noundef nonnull align 8 dereferenceable(8) %0, i32 noundef %1) #6 comdat align 2 {
  %3 = alloca ptr, align 8
  %4 = alloca i32, align 4
  store ptr %0, ptr %3, align 8, !tbaa !186
  store i32 %1, ptr %4, align 4, !tbaa !23
  %5 = load ptr, ptr %3, align 8
  %6 = getelementptr inbounds nuw %class.vector, ptr %5, i32 0, i32 0
  %7 = load ptr, ptr %6, align 8, !tbaa !192
  %8 = load i32, ptr %4, align 4, !tbaa !23
  %9 = zext i32 %8 to i64
  %10 = getelementptr inbounds nuw ptr, ptr %7, i64 %9
  ret ptr %10
}

; Function Attrs: mustprogress nounwind uwtable
define linkonce_odr hidden noundef ptr @_ZNK3app7get_argEj(ptr noundef nonnull align 8 dereferenceable(32) %0, i32 noundef %1) #6 comdat align 2 {
  %3 = alloca ptr, align 8
  %4 = alloca i32, align 4
  store ptr %0, ptr %3, align 8, !tbaa !91
  store i32 %1, ptr %4, align 4, !tbaa !23
  %5 = load ptr, ptr %3, align 8
  %6 = getelementptr inbounds nuw %class.app, ptr %5, i32 0, i32 4
  %7 = load i32, ptr %4, align 4, !tbaa !23
  %8 = zext i32 %7 to i64
  %9 = getelementptr inbounds nuw [0 x ptr], ptr %6, i64 0, i64 %8
  %10 = load ptr, ptr %9, align 8, !tbaa !27
  ret ptr %10
}

; Function Attrs: mustprogress nounwind uwtable
define linkonce_odr hidden noundef ptr @_ZNK15ref_vector_coreI4expr19ref_manager_wrapperIS0_11ast_managerEE3getEj(ptr noundef nonnull align 8 dereferenceable(16) %0, i32 noundef %1) #6 comdat align 2 {
  %3 = alloca ptr, align 8
  %4 = alloca i32, align 4
  store ptr %0, ptr %3, align 8, !tbaa !66
  store i32 %1, ptr %4, align 4, !tbaa !23
  %5 = load ptr, ptr %3, align 8
  %6 = getelementptr inbounds nuw %class.ref_vector_core, ptr %5, i32 0, i32 1
  %7 = load i32, ptr %4, align 4, !tbaa !23
  %8 = call noundef nonnull align 8 dereferenceable(8) ptr @_ZNK6vectorIP4exprLb0EjEixEj(ptr noundef nonnull align 8 dereferenceable(8) %6, i32 noundef %7)
  %9 = load ptr, ptr %8, align 8, !tbaa !27
  ret ptr %9
}

; Function Attrs: mustprogress nounwind uwtable
define linkonce_odr hidden noundef nonnull align 8 dereferenceable(16) ptr @_ZNK5smtfd13theory_plugin6valuesEv(ptr noundef nonnull align 8 dereferenceable(144) %0) #6 comdat align 2 {
  %2 = alloca ptr, align 8
  store ptr %0, ptr %2, align 8, !tbaa !15
  %3 = load ptr, ptr %2, align 8
  %4 = getelementptr inbounds nuw %"class.smtfd::theory_plugin", ptr %3, i32 0, i32 4
  ret ptr %4
}

; Function Attrs: mustprogress nounwind uwtable
define linkonce_odr hidden noundef i32 @_ZNK3app12get_num_argsEv(ptr noundef nonnull align 8 dereferenceable(32) %0) #6 comdat align 2 {
  %2 = alloca ptr, align 8
  store ptr %0, ptr %2, align 8, !tbaa !91
  %3 = load ptr, ptr %2, align 8
  %4 = getelementptr inbounds nuw %class.app, ptr %3, i32 0, i32 2
  %5 = load i32, ptr %4, align 8, !tbaa !92
  ret i32 %5
}

; Function Attrs: mustprogress uwtable
define hidden noundef zeroext i1 @_ZNK5smtfd8f_app_eqclERKNS_5f_appES3_(ptr noundef nonnull align 8 dereferenceable(8) %0, ptr noundef nonnull align 8 dereferenceable(32) %1, ptr noundef nonnull align 8 dereferenceable(32) %2) #4 align 2 {
  %4 = alloca i1, align 1
  %5 = alloca ptr, align 8
  %6 = alloca ptr, align 8
  %7 = alloca ptr, align 8
  %8 = alloca i32, align 4
  %9 = alloca i32, align 4
  store ptr %0, ptr %5, align 8, !tbaa !77
  store ptr %1, ptr %6, align 8, !tbaa !79
  store ptr %2, ptr %7, align 8, !tbaa !79
  %10 = load ptr, ptr %5, align 8
  %11 = load ptr, ptr %6, align 8, !tbaa !79
  %12 = getelementptr inbounds nuw %"struct.smtfd::f_app", ptr %11, i32 0, i32 0
  %13 = load ptr, ptr %12, align 8, !tbaa !81
  %14 = load ptr, ptr %7, align 8, !tbaa !79
  %15 = getelementptr inbounds nuw %"struct.smtfd::f_app", ptr %14, i32 0, i32 0
  %16 = load ptr, ptr %15, align 8, !tbaa !81
  %17 = icmp ne ptr %13, %16
  br i1 %17, label %18, label %19

18:                                               ; preds = %3
  store i1 false, ptr %4, align 1
  br label %71

19:                                               ; preds = %3
  call void @llvm.lifetime.start.p0(i64 4, ptr %8) #3
  store i32 0, ptr %8, align 4, !tbaa !23
  br label %20

20:                                               ; preds = %65, %19
  %21 = load i32, ptr %8, align 4, !tbaa !23
  %22 = load ptr, ptr %6, align 8, !tbaa !79
  %23 = getelementptr inbounds nuw %"struct.smtfd::f_app", ptr %22, i32 0, i32 1
  %24 = load ptr, ptr %23, align 8, !tbaa !85
  %25 = call noundef i32 @_ZNK3app12get_num_argsEv(ptr noundef nonnull align 8 dereferenceable(32) %24)
  %26 = icmp ult i32 %21, %25
  br i1 %26, label %28, label %27

27:                                               ; preds = %20
  store i32 2, ptr %9, align 4
  br label %68

28:                                               ; preds = %20
  %29 = getelementptr inbounds nuw %"struct.smtfd::f_app_eq", ptr %10, i32 0, i32 0
  %30 = load ptr, ptr %29, align 8, !tbaa !86
  %31 = call noundef nonnull align 8 dereferenceable(16) ptr @_ZNK5smtfd13theory_plugin6valuesEv(ptr noundef nonnull align 8 dereferenceable(144) %30)
  %32 = load ptr, ptr %6, align 8, !tbaa !79
  %33 = getelementptr inbounds nuw %"struct.smtfd::f_app", ptr %32, i32 0, i32 3
  %34 = load i32, ptr %33, align 8, !tbaa !88
  %35 = load i32, ptr %8, align 4, !tbaa !23
  %36 = add i32 %34, %35
  %37 = call noundef ptr @_ZNK15ref_vector_coreI4expr19ref_manager_wrapperIS0_11ast_managerEE3getEj(ptr noundef nonnull align 8 dereferenceable(16) %31, i32 noundef %36)
  %38 = getelementptr inbounds nuw %"struct.smtfd::f_app_eq", ptr %10, i32 0, i32 0
  %39 = load ptr, ptr %38, align 8, !tbaa !86
  %40 = call noundef nonnull align 8 dereferenceable(16) ptr @_ZNK5smtfd13theory_plugin6valuesEv(ptr noundef nonnull align 8 dereferenceable(144) %39)
  %41 = load ptr, ptr %7, align 8, !tbaa !79
  %42 = getelementptr inbounds nuw %"struct.smtfd::f_app", ptr %41, i32 0, i32 3
  %43 = load i32, ptr %42, align 8, !tbaa !88
  %44 = load i32, ptr %8, align 4, !tbaa !23
  %45 = add i32 %43, %44
  %46 = call noundef ptr @_ZNK15ref_vector_coreI4expr19ref_manager_wrapperIS0_11ast_managerEE3getEj(ptr noundef nonnull align 8 dereferenceable(16) %40, i32 noundef %45)
  %47 = icmp ne ptr %37, %46
  br i1 %47, label %48, label %49

48:                                               ; preds = %28
  store i1 false, ptr %4, align 1
  store i32 1, ptr %9, align 4
  br label %68

49:                                               ; preds = %28
  %50 = load ptr, ptr %6, align 8, !tbaa !79
  %51 = getelementptr inbounds nuw %"struct.smtfd::f_app", ptr %50, i32 0, i32 1
  %52 = load ptr, ptr %51, align 8, !tbaa !85
  %53 = load i32, ptr %8, align 4, !tbaa !23
  %54 = call noundef ptr @_ZNK3app7get_argEj(ptr noundef nonnull align 8 dereferenceable(32) %52, i32 noundef %53)
  %55 = call noundef ptr @_ZNK4expr8get_sortEv(ptr noundef nonnull align 4 dereferenceable(16) %54)
  %56 = load ptr, ptr %7, align 8, !tbaa !79
  %57 = getelementptr inbounds nuw %"struct.smtfd::f_app", ptr %56, i32 0, i32 1
  %58 = load ptr, ptr %57, align 8, !tbaa !85
  %59 = load i32, ptr %8, align 4, !tbaa !23
  %60 = call noundef ptr @_ZNK3app7get_argEj(ptr noundef nonnull align 8 dereferenceable(32) %58, i32 noundef %59)
  %61 = call noundef ptr @_ZNK4expr8get_sortEv(ptr noundef nonnull align 4 dereferenceable(16) %60)
  %62 = icmp ne ptr %55, %61
  br i1 %62, label %63, label %64

63:                                               ; preds = %49
  store i1 false, ptr %4, align 1
  store i32 1, ptr %9, align 4
  br label %68

64:                                               ; preds = %49
  br label %65

65:                                               ; preds = %64
  %66 = load i32, ptr %8, align 4, !tbaa !23
  %67 = add i32 %66, 1
  store i32 %67, ptr %8, align 4, !tbaa !23
  br label %20, !llvm.loop !89

68:                                               ; preds = %63, %48, %27
  call void @llvm.lifetime.end.p0(i64 4, ptr %8) #3
  %69 = load i32, ptr %9, align 4
  switch i32 %69, label %73 [
    i32 2, label %70
    i32 1, label %71
  ]

70:                                               ; preds = %68
  store i1 true, ptr %4, align 1
  br label %71

71:                                               ; preds = %70, %68, %18
  %72 = load i1, ptr %4, align 1
  ret i1 %72

73:                                               ; preds = %68
  unreachable
}