; Function Attrs: mustprogress uwtable
define hidden noundef zeroext i1 @_ZNK5smtfd8f_app_eqclERKNS_5f_appES3_(ptr noundef nonnull readonly align 8 captures(none) dereferenceable(8) %0, ptr noundef nonnull readonly align 8 captures(none) dereferenceable(32) %1, ptr noundef nonnull readonly align 8 captures(none) dereferenceable(32) %2) local_unnamed_addr #3 align 2 {
  %4 = load ptr, ptr %1, align 8, !tbaa !72
  %5 = load ptr, ptr %2, align 8, !tbaa !72
  %.not = icmp eq ptr %4, %5
  br i1 %.not, label %.preheader, label %.loopexit

.preheader:                                       ; preds = %3
  %6 = getelementptr inbounds nuw i8, ptr %1, i64 8
  %7 = load ptr, ptr %6, align 8, !tbaa !77
  %8 = getelementptr inbounds nuw i8, ptr %7, i64 24
  %9 = load i32, ptr %8, align 8, !tbaa !78
  %10 = icmp eq i32 %9, 0
  br i1 %10, label %.loopexit, label %.lr.ph

.lr.ph:                                           ; preds = %.preheader
  %11 = getelementptr inbounds nuw i8, ptr %1, i64 24
  %12 = getelementptr inbounds nuw i8, ptr %2, i64 24
  %13 = getelementptr inbounds nuw i8, ptr %2, i64 8
  br label %19

14:                                               ; preds = %35
  %indvars.iv.next = add nuw nsw i64 %indvars.iv, 1
  %15 = load ptr, ptr %6, align 8, !tbaa !77
  %16 = getelementptr inbounds nuw i8, ptr %15, i64 24
  %17 = load i32, ptr %16, align 8, !tbaa !78
  %18 = zext i32 %17 to i64
  %.not24 = icmp samesign ult i64 %indvars.iv.next, %18
  br i1 %.not24, label %19, label %.loopexit, !llvm.loop !83

19:                                               ; preds = %.lr.ph, %14
  %indvars.iv = phi i64 [ 0, %.lr.ph ], [ %indvars.iv.next, %14 ]
  %20 = phi ptr [ %7, %.lr.ph ], [ %15, %14 ]
  %21 = load ptr, ptr %0, align 8, !tbaa !84
  %22 = load i32, ptr %11, align 8, !tbaa !86
  %23 = trunc nuw i64 %indvars.iv to i32
  %24 = add i32 %22, %23
  %25 = getelementptr inbounds nuw i8, ptr %21, i64 40
  %26 = load ptr, ptr %25, align 8, !tbaa !19
  %27 = zext i32 %24 to i64
  %28 = getelementptr inbounds nuw ptr, ptr %26, i64 %27
  %29 = load ptr, ptr %28, align 8, !tbaa !34
  %30 = load i32, ptr %12, align 8, !tbaa !86
  %31 = add i32 %30, %23
  %32 = zext i32 %31 to i64
  %33 = getelementptr inbounds nuw ptr, ptr %26, i64 %32
  %34 = load ptr, ptr %33, align 8, !tbaa !34
  %.not17 = icmp eq ptr %29, %34
  br i1 %.not17, label %35, label %.loopexit

35:                                               ; preds = %19
  %36 = getelementptr inbounds nuw i8, ptr %20, i64 32
  %37 = getelementptr inbounds nuw [0 x ptr], ptr %36, i64 0, i64 %indvars.iv
  %38 = load ptr, ptr %37, align 8, !tbaa !34
  %39 = tail call noundef ptr @_ZNK4expr8get_sortEv(ptr noundef nonnull align 4 dereferenceable(16) %38)
  %40 = load ptr, ptr %13, align 8, !tbaa !77
  %41 = getelementptr inbounds nuw i8, ptr %40, i64 32
  %42 = getelementptr inbounds nuw [0 x ptr], ptr %41, i64 0, i64 %indvars.iv
  %43 = load ptr, ptr %42, align 8, !tbaa !34
  %44 = tail call noundef ptr @_ZNK4expr8get_sortEv(ptr noundef nonnull align 4 dereferenceable(16) %43)
  %.not18 = icmp eq ptr %39, %44
  br i1 %.not18, label %14, label %.loopexit

.loopexit:                                        ; preds = %35, %19, %14, %.preheader, %3
  %.016 = phi i1 [ false, %3 ], [ true, %.preheader ], [ false, %35 ], [ false, %19 ], [ true, %14 ]
  ret i1 %.016
}